; Function Attrs: null_pointer_is_valid sspstrong uwtable
define internal range(i32 0, 2) i32 @gsm_a_dtap_ss_stat_packet(ptr noundef readonly captures(none) %0, ptr readnone captures(none) %1, ptr readnone captures(none) %2, ptr noundef readonly captures(none) %3, i32 %4) #1 {
  %6 = load i8, ptr %3, align 4
  %.not.i = icmp eq i8 %6, 1
  br i1 %.not.i, label %7, label %gsm_a_stat_packet.exit

7:                                                ; preds = %5
  %8 = getelementptr inbounds nuw i8, ptr %3, i64 4
  %9 = load i32, ptr %8, align 4
  %.not17.i = icmp eq i32 %9, 11
  br i1 %.not17.i, label %10, label %gsm_a_stat_packet.exit

10:                                               ; preds = %7
  %11 = load ptr, ptr %0, align 8
  %12 = getelementptr inbounds nuw i8, ptr %11, i64 104
  %13 = load ptr, ptr %12, align 8
  %14 = load ptr, ptr %13, align 8
  %15 = load ptr, ptr %14, align 8
  %16 = getelementptr inbounds nuw i8, ptr %3, i64 1
  %17 = load i8, ptr %16, align 1
  %18 = zext i8 %17 to i32
  %19 = tail call ptr @stat_tap_get_field_data(ptr noundef %15, i32 noundef %18, i32 noundef 2)
  %20 = getelementptr inbounds nuw i8, ptr %19, i64 8
  %21 = load i32, ptr %20, align 8
  %22 = add i32 %21, 1
  store i32 %22, ptr %20, align 8
  %23 = load i8, ptr %16, align 1
  %24 = zext i8 %23 to i32
  tail call void @stat_tap_set_field_data(ptr noundef %15, i32 noundef %24, i32 noundef 2, ptr noundef %19)
  br label %gsm_a_stat_packet.exit

gsm_a_stat_packet.exit:                           ; preds = %5, %7, %10
  %.0.i = phi i32 [ 1, %10 ], [ 0, %5 ], [ 0, %7 ]
  ret i32 %.0.i
}